; Function Attrs: nounwind uwtable
define i32 @WebPPictureARGBToYUVADithered(ptr noundef %0, i32 noundef %1, float noundef %2) local_unnamed_addr #0 {
  %4 = icmp eq ptr %0, null
  br i1 %4, label %PictureARGBToYUVA.exit, label %5

5:                                                ; preds = %3
  %6 = getelementptr inbounds nuw i8, ptr %0, i64 72
  %7 = load ptr, ptr %6, align 8, !tbaa !12
  %8 = icmp eq ptr %7, null
  br i1 %8, label %9, label %11

9:                                                ; preds = %5
  %10 = tail call i32 @WebPEncodingSetError(ptr noundef nonnull %0, i32 noundef 3) #9
  br label %PictureARGBToYUVA.exit

11:                                               ; preds = %5
  %12 = and i32 %1, 3
  %.not.i = icmp eq i32 %12, 0
  br i1 %.not.i, label %15, label %13

13:                                               ; preds = %11
  %14 = tail call i32 @WebPEncodingSetError(ptr noundef nonnull %0, i32 noundef 4) #9
  br label %PictureARGBToYUVA.exit

15:                                               ; preds = %11
  %16 = getelementptr inbounds nuw i8, ptr %7, i64 3
  %17 = getelementptr inbounds nuw i8, ptr %7, i64 2
  %18 = getelementptr inbounds nuw i8, ptr %7, i64 1
  %19 = getelementptr inbounds nuw i8, ptr %0, i64 4
  store i32 0, ptr %19, align 4, !tbaa !22
  %20 = getelementptr inbounds nuw i8, ptr %0, i64 80
  %21 = load i32, ptr %20, align 8, !tbaa !15
  %22 = shl nsw i32 %21, 2
  %23 = tail call fastcc i32 @ImportYUVAFromRGBA(ptr noundef %17, ptr noundef %18, ptr noundef %7, ptr noundef nonnull %16, i32 noundef 4, i32 noundef %22, float noundef %2, i32 noundef 0, ptr noundef %0)
  br label %PictureARGBToYUVA.exit

PictureARGBToYUVA.exit:                           ; preds = %3, %9, %13, %15
  %.0.i = phi i32 [ %10, %9 ], [ %14, %13 ], [ %23, %15 ], [ 0, %3 ]
  ret i32 %.0.i
}